target datalayout = "e-m:e-p270:32:32-p271:32:32-p272:64:64-i64:64-i128:128-f80:128-n8:16:32:64-S128"
target triple = "x86_64-unknown-linux-gnu"

; Function Attrs: mustprogress uwtable
define noundef zeroext i1 @_ZN8proxygen13SessionHolder10isPoolableEPKNS_15HTTPSessionBaseE(ptr noundef %sess) #4 align 2 {
entry:
  %sess.addr = alloca ptr, align 8
  store ptr %sess, ptr %sess.addr, align 8
  %0 = load ptr, ptr %sess.addr, align 8
  %vtable = load ptr, ptr %0, align 8
  %vfn = getelementptr inbounds ptr, ptr %vtable, i64 53
  %1 = load ptr, ptr %vfn, align 8
  %call = call noundef zeroext i1 %1(ptr noundef nonnull align 8 dereferenceable(1582) %0)
  br i1 %call, label %land.end, label %land.rhs

land.rhs:                                         ; preds = %entry
  %2 = load ptr, ptr %sess.addr, align 8
  %vtable1 = load ptr, ptr %2, align 8
  %vfn2 = getelementptr inbounds ptr, ptr %vtable1, i64 26
  %3 = load ptr, ptr %vfn2, align 8
  %call3 = call noundef i32 %3(ptr noundef nonnull align 8 dereferenceable(1582) %2)
  %tobool = icmp ne i32 %call3, 0
  br i1 %tobool, label %lor.end, label %lor.rhs

lor.rhs:                                          ; preds = %land.rhs
  %4 = load ptr, ptr %sess.addr, align 8
  %vtable4 = load ptr, ptr %4, align 8
  %vfn5 = getelementptr inbounds ptr, ptr %vtable4, i64 52
  %5 = load ptr, ptr %vfn5, align 8
  %call6 = call noundef zeroext i1 %5(ptr noundef nonnull align 8 dereferenceable(1582) %4)
  br label %lor.end

lor.end:                                          ; preds = %lor.rhs, %land.rhs
  %6 = phi i1 [ true, %land.rhs ], [ %call6, %lor.rhs ]
  br label %land.end

land.end:                                         ; preds = %lor.end, %entry
  %7 = phi i1 [ false, %entry ], [ %6, %lor.end ]
  ret i1 %7
}