; Function Attrs: mustprogress uwtable
define noundef zeroext i1 @_ZN8proxygen13SessionHolder10isPoolableEPKNS_15HTTPSessionBaseE(ptr noundef %sess) local_unnamed_addr #3 align 2 {
entry:
  %vtable = load ptr, ptr %sess, align 8
  %vfn = getelementptr inbounds i8, ptr %vtable, i64 424
  %0 = load ptr, ptr %vfn, align 8
  %call = tail call noundef zeroext i1 %0(ptr noundef nonnull align 8 dereferenceable(1582) %sess)
  br i1 %call, label %land.end, label %land.rhs

land.rhs:                                         ; preds = %entry
  %vtable1 = load ptr, ptr %sess, align 8
  %vfn2 = getelementptr inbounds i8, ptr %vtable1, i64 208
  %1 = load ptr, ptr %vfn2, align 8
  %call3 = tail call noundef i32 %1(ptr noundef nonnull align 8 dereferenceable(1582) %sess)
  %tobool.not = icmp eq i32 %call3, 0
  br i1 %tobool.not, label %lor.rhs, label %land.end

lor.rhs:                                          ; preds = %land.rhs
  %vtable4 = load ptr, ptr %sess, align 8
  %vfn5 = getelementptr inbounds i8, ptr %vtable4, i64 416
  %2 = load ptr, ptr %vfn5, align 8
  %call6 = tail call noundef zeroext i1 %2(ptr noundef nonnull align 8 dereferenceable(1582) %sess)
  br label %land.end

land.end:                                         ; preds = %land.rhs, %lor.rhs, %entry
  %3 = phi i1 [ false, %entry ], [ true, %land.rhs ], [ %call6, %lor.rhs ]
  ret i1 %3
}